; Function Attrs: mustprogress nofree norecurse nosync nounwind willreturn memory(read, inaccessiblemem: none) uwtable
define noundef i64 @_ZN3net10SpdyFramer19GetSerializedLengthENS_16SpdyMajorVersionEPKNS_15SpdyHeaderBlockE(i32 noundef %0, ptr noundef readonly captures(address) %1) local_unnamed_addr #16 align 2 personality ptr @__gxx_personality_v0 {
  %3 = getelementptr inbounds nuw i8, ptr %1, i64 56
  %.sroa.06.09 = load ptr, ptr %3, align 8, !tbaa !146
  %.not10 = icmp eq ptr %.sroa.06.09, %3
  br i1 %.not10, label %._crit_edge, label %.lr.ph

._crit_edge:                                      ; preds = %.lr.ph, %2
  %.0.lcssa = phi i64 [ 4, %2 ], [ %10, %.lr.ph ]
  ret i64 %.0.lcssa

.lr.ph:                                           ; preds = %2, %.lr.ph
  %.sroa.06.012 = phi ptr [ %.sroa.06.0, %.lr.ph ], [ %.sroa.06.09, %2 ]
  %.011 = phi i64 [ %10, %.lr.ph ], [ 4, %2 ]
  %4 = getelementptr inbounds nuw i8, ptr %.sroa.06.012, i64 24
  %5 = load i64, ptr %4, align 8, !tbaa !149
  %6 = getelementptr inbounds nuw i8, ptr %.sroa.06.012, i64 40
  %7 = load i64, ptr %6, align 8, !tbaa !149
  %8 = add i64 %.011, 8
  %9 = add i64 %8, %5
  %10 = add i64 %9, %7
  %.sroa.06.0 = load ptr, ptr %.sroa.06.012, align 8, !tbaa !146
  %.not = icmp eq ptr %.sroa.06.0, %3
  br i1 %.not, label %._crit_edge, label %.lr.ph
}